; Function Attrs: nounwind uwtable
define ptr @l_Lake_takeArgD___rarg(ptr noundef %0, ptr noundef %1) #0 {
  tail call void @lean_inc_heartbeat() #3
  %3 = tail call noalias ptr @mi_malloc_small(i64 noundef 32) #3
  %4 = icmp eq ptr %3, null
  br i1 %4, label %5, label %lean_alloc_closure.exit

5:                                                ; preds = %2
  tail call void @lean_internal_panic_out_of_memory() #4
  unreachable

lean_alloc_closure.exit:                          ; preds = %2
  %6 = getelementptr inbounds nuw i8, ptr %3, i64 4
  store i32 1, ptr %3, align 4, !tbaa !4
  store i32 -184549344, ptr %6, align 4
  %7 = getelementptr inbounds nuw i8, ptr %3, i64 8
  store ptr @l_Lake_takeArgD___rarg___lambda__1, ptr %7, align 8, !tbaa !11
  %8 = getelementptr inbounds nuw i8, ptr %3, i64 16
  store i16 2, ptr %8, align 8, !tbaa !13
  %9 = getelementptr inbounds nuw i8, ptr %3, i64 18
  store i16 1, ptr %9, align 2, !tbaa !13
  %10 = getelementptr inbounds nuw i8, ptr %3, i64 24
  store ptr %1, ptr %10, align 8, !tbaa !11
  %11 = getelementptr inbounds nuw i8, ptr %0, i64 24
  %12 = load ptr, ptr %11, align 8, !tbaa !11
  %13 = ptrtoint ptr %12 to i64
  %14 = and i64 %13, 1
  %.not = icmp eq i64 %14, 0
  br i1 %.not, label %15, label %lean_inc.exit

15:                                               ; preds = %lean_alloc_closure.exit
  %.val.i = load i32, ptr %12, align 4, !tbaa !4
  %16 = icmp sgt i32 %.val.i, 0
  br i1 %16, label %17, label %19, !prof !9

17:                                               ; preds = %15
  %18 = add nuw i32 %.val.i, 1
  store i32 %18, ptr %12, align 4, !tbaa !4
  br label %lean_inc.exit

19:                                               ; preds = %15
  %.not.i8 = icmp eq i32 %.val.i, 0
  br i1 %.not.i8, label %lean_inc.exit, label %20

20:                                               ; preds = %19
  tail call void @lean_inc_ref_cold(ptr noundef nonnull %12) #3
  br label %lean_inc.exit

lean_inc.exit:                                    ; preds = %20, %19, %17, %lean_alloc_closure.exit
  %21 = ptrtoint ptr %0 to i64
  %22 = and i64 %21, 1
  %.not9 = icmp eq i64 %22, 0
  br i1 %.not9, label %23, label %lean_dec.exit

23:                                               ; preds = %lean_inc.exit
  %24 = load i32, ptr %0, align 4, !tbaa !4
  %25 = icmp sgt i32 %24, 1
  br i1 %25, label %26, label %28, !prof !9

26:                                               ; preds = %23
  %27 = add nsw i32 %24, -1
  store i32 %27, ptr %0, align 4, !tbaa !4
  br label %lean_dec.exit

28:                                               ; preds = %23
  %.not.i = icmp eq i32 %24, 0
  br i1 %.not.i, label %lean_dec.exit, label %29

29:                                               ; preds = %28
  tail call void @lean_dec_ref_cold(ptr noundef nonnull %0) #3
  br label %lean_dec.exit

lean_dec.exit:                                    ; preds = %29, %28, %26, %lean_inc.exit
  %30 = tail call ptr @lean_apply_2(ptr noundef %12, ptr noundef nonnull inttoptr (i64 1 to ptr), ptr noundef nonnull %3) #3
  ret ptr %30
}